target datalayout = "e-m:e-p270:32:32-p271:32:32-p272:64:64-i64:64-i128:128-f80:128-n8:16:32:64-S128"
target triple = "x86_64-pc-linux-gnu"

%"struct.std::_Rb_tree_header" = type { %"struct.std::_Rb_tree_node_base", i64 }
%"struct.std::_Rb_tree_node_base" = type { i32, ptr, ptr, ptr }
%"class.std::__cxx11::basic_string" = type { %"struct.std::__cxx11::basic_string<char>::_Alloc_hider", i64, %union.anon }
%"struct.std::__cxx11::basic_string<char>::_Alloc_hider" = type { ptr }
%union.anon = type { i64, [8 x i8] }
%struct.PJconsts = type { ptr, ptr, ptr, ptr, ptr, ptr, ptr, ptr, ptr, ptr, ptr, ptr, i32, ptr, ptr, ptr, ptr, ptr, ptr, ptr, ptr, double, double, double, double, double, double, double, double, double, double, double, double, double, double, double, double, double, double, double, double, double, double, i32, i32, i32, i32, i32, i32, i32, i32, i32, i32, i32, ptr, ptr, ptr, ptr, ptr, ptr, double, double, double, double, double, double, double, double, double, double, double, i32, [7 x double], i32, ptr, ptr, double, double, i32, [4 x i8], %"class.std::shared_ptr", i8, double, i8, %"class.std::__cxx11::basic_string", %"class.std::__cxx11::basic_string", %"class.std::__cxx11::basic_string", i8, %"class.std::vector", i32, %"class.std::vector.6", i32, i8, i8, i8, ptr }
%"class.std::shared_ptr" = type { %"class.std::__shared_ptr" }
%"class.std::__shared_ptr" = type { ptr, %"class.std::__shared_count" }
%"class.std::__shared_count" = type { ptr }
%"class.std::vector" = type { %"struct.std::_Vector_base" }
%"struct.std::_Vector_base" = type { %"struct.std::_Vector_base<osgeo::proj::operation::GridDescription, std::allocator<osgeo::proj::operation::GridDescription>>::_Vector_impl" }
%"struct.std::_Vector_base<osgeo::proj::operation::GridDescription, std::allocator<osgeo::proj::operation::GridDescription>>::_Vector_impl" = type { %"struct.std::_Vector_base<osgeo::proj::operation::GridDescription, std::allocator<osgeo::proj::operation::GridDescription>>::_Vector_impl_data" }
%"struct.std::_Vector_base<osgeo::proj::operation::GridDescription, std::allocator<osgeo::proj::operation::GridDescription>>::_Vector_impl_data" = type { ptr, ptr, ptr }
%"class.std::vector.6" = type { %"struct.std::_Vector_base.7" }
%"struct.std::_Vector_base.7" = type { %"struct.std::_Vector_base<PJCoordOperation, std::allocator<PJCoordOperation>>::_Vector_impl" }
%"struct.std::_Vector_base<PJCoordOperation, std::allocator<PJCoordOperation>>::_Vector_impl" = type { %"struct.std::_Vector_base<PJCoordOperation, std::allocator<PJCoordOperation>>::_Vector_impl_data" }
%"struct.std::_Vector_base<PJCoordOperation, std::allocator<PJCoordOperation>>::_Vector_impl_data" = type { ptr, ptr, ptr }
%"class.std::vector.11" = type { %"struct.std::_Vector_base.12" }
%"struct.std::_Vector_base.12" = type { %"struct.std::_Vector_base<std::unique_ptr<osgeo::proj::GenericShiftGridSet>, std::allocator<std::unique_ptr<osgeo::proj::GenericShiftGridSet>>>::_Vector_impl" }
%"struct.std::_Vector_base<std::unique_ptr<osgeo::proj::GenericShiftGridSet>, std::allocator<std::unique_ptr<osgeo::proj::GenericShiftGridSet>>>::_Vector_impl" = type { %"struct.std::_Vector_base<std::unique_ptr<osgeo::proj::GenericShiftGridSet>, std::allocator<std::unique_ptr<osgeo::proj::GenericShiftGridSet>>>::_Vector_impl_data" }
%"struct.std::_Vector_base<std::unique_ptr<osgeo::proj::GenericShiftGridSet>, std::allocator<std::unique_ptr<osgeo::proj::GenericShiftGridSet>>>::_Vector_impl_data" = type { ptr, ptr, ptr }
%"struct.(anonymous namespace)::gridshiftData" = type { %"class.std::vector.11", i8, i32, i8, i8, i8, i8, i8, i8, i8, %"class.std::__cxx11::basic_string", %"class.std::__cxx11::basic_string", %"class.std::__cxx11::basic_string", %"class.std::map.16", double, double }
%"class.std::map.16" = type { %"class.std::_Rb_tree.17" }
%"class.std::_Rb_tree.17" = type { %"struct.std::_Rb_tree<const osgeo::proj::GenericShiftGrid *, std::pair<const osgeo::proj::GenericShiftGrid *const, (anonymous namespace)::GridInfo>, std::_Select1st<std::pair<const osgeo::proj::GenericShiftGrid *const, (anonymous namespace)::GridInfo>>, std::less<const osgeo::proj::GenericShiftGrid *>>::_Rb_tree_impl" }
%"struct.std::_Rb_tree<const osgeo::proj::GenericShiftGrid *, std::pair<const osgeo::proj::GenericShiftGrid *const, (anonymous namespace)::GridInfo>, std::_Select1st<std::pair<const osgeo::proj::GenericShiftGrid *const, (anonymous namespace)::GridInfo>>, std::less<const osgeo::proj::GenericShiftGrid *>>::_Rb_tree_impl" = type { [8 x i8], %"struct.std::_Rb_tree_header" }
%struct.PJ_XYZ = type { double, double, double }
%struct.PJ_LPZ = type { double, double, double }
%union.PJ_COORD = type { [4 x double] }

; Function Attrs: mustprogress uwtable
define internal void @_ZL23pj_gridshift_reverse_3d6PJ_XYZP8PJconsts(ptr dead_on_unwind noalias writable sret(%struct.PJ_LPZ) align 8 %0, ptr noundef byval(%struct.PJ_XYZ) align 8 %1, ptr noundef %2) #5 {
  %4 = alloca ptr, align 8
  %5 = alloca ptr, align 8
  %6 = alloca %union.PJ_COORD, align 8
  %7 = alloca i32, align 4
  %8 = alloca %struct.PJ_XYZ, align 8
  %9 = alloca %struct.PJ_XYZ, align 8
  store ptr %2, ptr %4, align 8, !tbaa !16
  call void @llvm.lifetime.start.p0(i64 8, ptr %5) #3
  %10 = load ptr, ptr %4, align 8, !tbaa !16
  %11 = getelementptr inbounds nuw %struct.PJconsts, ptr %10, i32 0, i32 11
  %12 = load ptr, ptr %11, align 8, !tbaa !52
  store ptr %12, ptr %5, align 8, !tbaa !50
  %13 = load ptr, ptr %5, align 8, !tbaa !50
  %14 = load ptr, ptr %4, align 8, !tbaa !16
  %15 = call noundef zeroext i1 @_ZN12_GLOBAL__N_113gridshiftData17loadGridsIfNeededEP8PJconsts(ptr noundef nonnull align 8 dereferenceable(200) %13, ptr noundef %14)
  br i1 %15, label %17, label %16

16:                                               ; preds = %3
  call void @llvm.lifetime.start.p0(i64 32, ptr %6) #3
  call void @_Z16proj_coord_errorv(ptr dead_on_unwind writable sret(%union.PJ_COORD) align 8 %6)
  call void @llvm.memcpy.p0.p0.i64(ptr align 8 %0, ptr align 8 %6, i64 24, i1 false), !tbaa.struct !119
  call void @llvm.lifetime.end.p0(i64 32, ptr %6) #3
  store i32 1, ptr %7, align 4
  br label %41

17:                                               ; preds = %3
  %18 = load ptr, ptr %5, align 8, !tbaa !50
  %19 = getelementptr inbounds nuw %"struct.(anonymous namespace)::gridshiftData", ptr %18, i32 0, i32 14
  %20 = load double, ptr %19, align 8, !tbaa !110
  %21 = getelementptr inbounds nuw %struct.PJ_XYZ, ptr %1, i32 0, i32 0
  %22 = load double, ptr %21, align 8, !tbaa !123
  %23 = fsub double %22, %20
  store double %23, ptr %21, align 8, !tbaa !123
  %24 = load ptr, ptr %5, align 8, !tbaa !50
  %25 = getelementptr inbounds nuw %"struct.(anonymous namespace)::gridshiftData", ptr %24, i32 0, i32 15
  %26 = load double, ptr %25, align 8, !tbaa !111
  %27 = getelementptr inbounds nuw %struct.PJ_XYZ, ptr %1, i32 0, i32 1
  %28 = load double, ptr %27, align 8, !tbaa !126
  %29 = fsub double %28, %26
  store double %29, ptr %27, align 8, !tbaa !126
  call void @llvm.lifetime.start.p0(i64 24, ptr %8) #3
  %30 = load ptr, ptr %5, align 8, !tbaa !50
  %31 = load ptr, ptr %4, align 8, !tbaa !16
  call void @llvm.memcpy.p0.p0.i64(ptr align 8 %9, ptr align 8 %1, i64 24, i1 false), !tbaa.struct !119
  call void @_ZN12_GLOBAL__N_113gridshiftData5applyEP8PJconsts12PJ_DIRECTION6PJ_XYZ(ptr dead_on_unwind writable sret(%struct.PJ_XYZ) align 8 %8, ptr noundef nonnull align 8 dereferenceable(200) %30, ptr noundef %31, i32 noundef -1, ptr noundef byval(%struct.PJ_XYZ) align 8 %9)
  %32 = getelementptr inbounds nuw %struct.PJ_XYZ, ptr %8, i32 0, i32 0
  %33 = load double, ptr %32, align 8, !tbaa !123
  %34 = getelementptr inbounds nuw %struct.PJ_LPZ, ptr %0, i32 0, i32 0
  store double %33, ptr %34, align 8, !tbaa !121
  %35 = getelementptr inbounds nuw %struct.PJ_XYZ, ptr %8, i32 0, i32 1
  %36 = load double, ptr %35, align 8, !tbaa !126
  %37 = getelementptr inbounds nuw %struct.PJ_LPZ, ptr %0, i32 0, i32 1
  store double %36, ptr %37, align 8, !tbaa !125
  %38 = getelementptr inbounds nuw %struct.PJ_XYZ, ptr %8, i32 0, i32 2
  %39 = load double, ptr %38, align 8, !tbaa !128
  %40 = getelementptr inbounds nuw %struct.PJ_LPZ, ptr %0, i32 0, i32 2
  store double %39, ptr %40, align 8, !tbaa !127
  store i32 1, ptr %7, align 4
  call void @llvm.lifetime.end.p0(i64 24, ptr %8) #3
  br label %41

41:                                               ; preds = %17, %16
  call void @llvm.lifetime.end.p0(i64 8, ptr %5) #3
  ret void
}