; Function Attrs: mustprogress uwtable
define internal void @_ZL23pj_gridshift_reverse_3d6PJ_XYZP8PJconsts(ptr dead_on_unwind noalias writable writeonly sret(%struct.PJ_LPZ) align 8 captures(none) initializes((0, 24)) %0, ptr noundef byval(%struct.PJ_XYZ) align 8 captures(none) %1, ptr noundef %2) #4 {
  %4 = alloca %union.PJ_COORD, align 8
  %5 = alloca %struct.PJ_XYZ, align 8
  %6 = getelementptr inbounds nuw i8, ptr %2, i64 88
  %7 = load ptr, ptr %6, align 8, !tbaa !50
  %8 = tail call fastcc noundef zeroext i1 @_ZN12_GLOBAL__N_113gridshiftData17loadGridsIfNeededEP8PJconsts(ptr noundef nonnull align 8 dereferenceable(200) %7, ptr noundef %2)
  br i1 %8, label %10, label %9

9:                                                ; preds = %3
  call void @llvm.lifetime.start.p0(i64 32, ptr nonnull %4) #23
  call void @_Z16proj_coord_errorv(ptr dead_on_unwind nonnull writable sret(%union.PJ_COORD) align 8 %4)
  call void @llvm.memcpy.p0.p0.i64(ptr noundef nonnull align 8 dereferenceable(24) %0, ptr noundef nonnull align 8 dereferenceable(24) %4, i64 24, i1 false), !tbaa.struct !109
  call void @llvm.lifetime.end.p0(i64 32, ptr nonnull %4) #23
  br label %27

10:                                               ; preds = %3
  %11 = getelementptr inbounds nuw i8, ptr %7, i64 184
  %12 = load double, ptr %11, align 8, !tbaa !119
  %13 = load double, ptr %1, align 8, !tbaa !113
  %14 = fsub double %13, %12
  store double %14, ptr %1, align 8, !tbaa !113
  %15 = getelementptr inbounds nuw i8, ptr %7, i64 192
  %16 = load double, ptr %15, align 8, !tbaa !120
  %17 = getelementptr inbounds nuw i8, ptr %1, i64 8
  %18 = load double, ptr %17, align 8, !tbaa !116
  %19 = fsub double %18, %16
  store double %19, ptr %17, align 8, !tbaa !116
  call void @llvm.lifetime.start.p0(i64 24, ptr nonnull %5) #23
  call fastcc void @_ZN12_GLOBAL__N_113gridshiftData5applyEP8PJconsts12PJ_DIRECTION6PJ_XYZ(ptr dead_on_unwind noalias writable align 8 %5, ptr noundef nonnull align 8 dereferenceable(200) %7, ptr noundef nonnull %2, i32 noundef -1, ptr noundef nonnull byval(%struct.PJ_XYZ) align 8 %1)
  %20 = load double, ptr %5, align 8, !tbaa !113
  store double %20, ptr %0, align 8, !tbaa !111
  %21 = getelementptr inbounds nuw i8, ptr %5, i64 8
  %22 = load double, ptr %21, align 8, !tbaa !116
  %23 = getelementptr inbounds nuw i8, ptr %0, i64 8
  store double %22, ptr %23, align 8, !tbaa !115
  %24 = getelementptr inbounds nuw i8, ptr %5, i64 16
  %25 = load double, ptr %24, align 8, !tbaa !118
  %26 = getelementptr inbounds nuw i8, ptr %0, i64 16
  store double %25, ptr %26, align 8, !tbaa !117
  call void @llvm.lifetime.end.p0(i64 24, ptr nonnull %5) #23
  br label %27

27:                                               ; preds = %10, %9
  ret void
}